Certificate:
    Data:
        Version: 3 (0x2)
        Serial Number:
            96:c3:56:b7:5f:43:a4:8a
    Signature Algorithm: sha256WithRSAEncryption
        Issuer: C=HK, O=abc.com, CN=ca@abc.com/emailAddress=ca@abc.com
        Validity
            Not Before: Feb  8 06:55:30 2017 GMT
            Not After : Feb  8 06:55:30 2020 GMT
        Subject: C=HK, O=abc.com, CN=ca@abc.com/emailAddress=ca@abc.com
        Subject Public Key Info:
            Public Key Algorithm: rsaEncryption
                Public-Key: (2048 bit)
                Modulus:
                    00:f0:d4:5f:82:30:a5:7c:69:91:30:de:97:69:96:
                    c8:06:e6:ac:f2:59:2b:a5:4b:61:90:97:f9:06:80:
                    35:8d:29:6e:20:07:d2:cb:99:b4:70:9f:87:f5:9c:
                    b2:66:00:49:65:19:f0:e0:f4:c3:90:1f:84:94:85:
                    20:f4:93:27:5e:73:07:54:52:af:ad:b7:6f:ca:e0:
                    84:2c:dd:8c:dc:67:98:15:a1:7f:c3:af:9a:83:5b:
                    df:e3:95:ab:9f:d0:b4:97:f7:9d:64:01:7a:6e:8e:
                    0f:f4:0d:3f:a3:93:00:b5:c4:5d:fa:ef:d9:91:cb:
                    90:1c:a7:43:0c:68:a0:67:38:9c:31:05:c6:63:a8:
                    c4:00:20:66:f6:23:d8:4c:9f:4a:cf:08:a7:75:df:
                    27:41:11:1e:ec:72:b8:66:fe:1c:f7:0e:3c:36:fe:
                    48:cc:8e:68:9a:cf:29:b1:89:b5:07:ce:4c:9e:f5:
                    29:8b:38:89:45:f7:d9:14:3f:33:10:c9:fa:c3:40:
                    01:be:ea:17:86:f3:cd:f2:40:5b:b9:d6:96:b4:76:
                    ca:a4:c7:ee:de:bf:c5:e5:8d:f5:f3:55:b8:b3:bc:
                    ad:62:89:5d:ea:84:15:b8:61:54:35:a5:34:8f:0d:
                    56:2e:6a:fe:ce:ad:36:61:e5:05:71:a3:48:b9:43:
                    df:f7
                Exponent: 65537 (0x10001)
        X509v3 extensions:
            X509v3 Subject Key Identifier: 
                9F:03:D9:85:49:B7:97:83:DB:27:11:5D:D5:F3:AA:AB:B3:D9:AA:39
            X509v3 Authority Key Identifier: 
                keyid:9F:03:D9:85:49:B7:97:83:DB:27:11:5D:D5:F3:AA:AB:B3:D9:AA:39

            X509v3 Basic Constraints: 
                CA:TRUE
    Signature Algorithm: sha256WithRSAEncryption
         a2:b0:90:4f:06:fe:89:41:ba:4f:6c:e3:48:b4:44:75:3a:b8:
         40:da:6c:24:4d:b0:15:7e:c9:18:91:51:57:2b:36:37:1f:15:
         b7:ae:5f:a9:70:69:53:dd:50:e3:1f:23:b2:a7:e6:c5:99:01:
         bb:e8:70:52:0e:5a:1a:aa:9c:d9:bd:25:4d:fb:bf:a1:db:cf:
         40:8d:59:99:75:8e:4d:cd:da:de:f7:13:b0:3e:dc:a4:c6:c8:
         e9:f5:55:6a:ad:3c:a4:bf:94:79:eb:cf:96:82:cf:35:5a:9b:
         d5:de:33:17:98:37:b4:a0:d3:c0:b5:d7:76:0e:39:be:13:31:
         ec:cf:89:b4:48:b0:02:48:08:41:2f:da:c4:ed:d5:e3:88:8b:
         a9:c9:36:a1:95:c7:0b:10:18:98:33:1b:7d:00:77:ff:6a:62:
         54:25:10:0e:91:09:5e:db:62:73:7f:fe:74:16:07:e2:29:81:
         3b:76:1e:20:76:fa:55:05:7f:f7:8d:ef:44:cb:2a:0c:b8:ad:
         db:3d:52:94:48:2b:ee:1e:33:5d:c3:c7:0e:8f:4f:05:43:2c:
         c4:12:b4:42:14:c5:35:06:45:ab:f6:eb:8f:98:fa:4b:ee:8f:
         ab:9d:61:61:ba:69:f1:aa:9e:a8:b2:c4:45:ef:98:db:3a:6c:
         ec:8c:58:85
-----BEGIN CERTIFICATE-----
MIIDcTCCAlmgAwIBAgIJAJbDVrdfQ6SKMA0GCSqGSIb3DQEBCwUAME8xCzAJBgNV
BAYTAkhLMRAwDgYDVQQKDAdhYmMuY29tMRMwEQYDVQQDDApjYUBhYmMuY29tMRkw
FwYJKoZIhvcNAQkBFgpjYUBhYmMuY29tMB4XDTE3MDIwODA2NTUzMFoXDTIwMDIw
ODA2NTUzMFowTzELMAkGA1UEBhMCSEsxEDAOBgNVBAoMB2FiYy5jb20xEzARBgNV
BAMMCmNhQGFiYy5jb20xGTAXBgkqhkiG9w0BCQEWCmNhQGFiYy5jb20wggEiMA0G
CSqGSIb3DQEBAQUAA4IBDwAwggEKAoIBAQDw1F+CMKV8aZEw3pdplsgG5qzyWSul
S2GQl/kGgDWNKW4gB9LLmbRwn4f1nLJmAEllGfDg9MOQH4SUhSD0kydecwdUUq+t
t2/K4IQs3YzcZ5gVoX/Dr5qDW9/jlauf0LSX951kAXpujg/0DT+jkwC1xF3679mR
y5Acp0MMaKBnOJwxBcZjqMQAIGb2I9hMn0rPCKd13ydBER7scrhm/hz3Djw2/kjM
jmiazymxibUHzkye9SmLOIlF99kUPzMQyfrDQAG+6heG883yQFu51pa0dsqkx+7e
v8XljfXzVbizvK1iiV3qhBW4YVQ1pTSPDVYuav7OrTZh5QVxo0i5Q9/3AgMBAAGj
UDBOMB0GA1UdDgQWBBSfA9mFSbeXg9snEV3V86qrs9mqOTAfBgNVHSMEGDAWgBSf
A9mFSbeXg9snEV3V86qrs9mqOTAMBgNVHRMEBTADAQH/MA0GCSqGSIb3DQEBCwUA
A4IBAQCisJBPBv6JQbpPbONItER1OrhA2mwkTbAVfskYkVFXKzY3HxW3rl+pcGlT
3VDjHyOyp+bFmQG76HBSDloaqpzZvSVN+7+h289AjVmZdY5Nzdre9xOwPtykxsjp
9VVqrTykv5R568+Wgs81WpvV3jMXmDe0oNPAtdd2Djm+EzHsz4m0SLACSAhBL9rE
7dXjiIupyTahlccLEBiYMxt9AHf/amJUJRAOkQle22Jzf/50FgfiKYE7dh4gdvpV
BX/3je9EyyoMuK3bPVKUSCvuHjNdw8cOj08FQyzEErRCFMU1BkWr9uuPmPpL7o+r
nWFhumnxqp6ossRF75jbOmzsjFiF
-----END CERTIFICATE-----
